target datalayout = "e-m:e-p270:32:32-p271:32:32-p272:64:64-i64:64-i128:128-f80:128-n8:16:32:64-S128"
target triple = "x86_64-pc-linux-gnu"

%struct.mbox_ctx = type { ptr, ptr, ptr, ptr, i32, ptr }
%struct.cli_ctx_tag = type { ptr, ptr, ptr, ptr, ptr, ptr, ptr, i64, ptr, i32, i32, ptr, i32, i32, ptr, [16 x i8], ptr, ptr, ptr, ptr, ptr, ptr, %struct.timeval, i8, i8 }
%struct.timeval = type { i64, i64 }
%struct.msxml_ctx = type { ptr, ptr, ptr, ptr, ptr }
%struct.blob = type { ptr, ptr, i64, i64, i32 }

@.str.215 = private unnamed_addr constant [19 x i8] c"in parseRootMHTML\0A\00", align 1
@.str.216 = private unnamed_addr constant [11 x i8] c"mhtml.html\00", align 1
@.str.217 = private unnamed_addr constant [54 x i8] c"parseRootMHTML: cannot initialize read html document\0A\00", align 1
@.str.218 = private unnamed_addr constant [22 x i8] c"MHTML_ERROR_HTML_READ\00", align 1
@.str.219 = private unnamed_addr constant [9 x i8] c"RootHTML\00", align 1
@.str.220 = private unnamed_addr constant [9 x i8] c"Encoding\00", align 1
@.str.221 = private unnamed_addr constant [13 x i8] c"CompressMode\00", align 1
@.str.222 = private unnamed_addr constant [49 x i8] c"parseRootMHTML: cannot initialize xmlTextReader\0A\00", align 1
@.str.223 = private unnamed_addr constant [26 x i8] c"MHTML_ERROR_XML_READER_IO\00", align 1
@num_mhtml_keys = internal global i64 5, align 8

; Function Attrs: nounwind uwtable
define internal i32 @parseRootMHTML(ptr noundef %0, ptr noundef %1, ptr noundef %2) #0 {
  %4 = alloca i32, align 4
  %5 = alloca ptr, align 8
  %6 = alloca ptr, align 8
  %7 = alloca ptr, align 8
  %8 = alloca ptr, align 8
  %9 = alloca %struct.msxml_ctx, align 8
  %10 = alloca ptr, align 8
  %11 = alloca ptr, align 8
  %12 = alloca ptr, align 8
  %13 = alloca i32, align 4
  %14 = alloca i32, align 4
  %15 = alloca ptr, align 8
  store ptr %0, ptr %5, align 8
  store ptr %1, ptr %6, align 8
  store ptr %2, ptr %7, align 8
  %16 = load ptr, ptr %5, align 8
  %17 = getelementptr inbounds %struct.mbox_ctx, ptr %16, i32 0, i32 3
  %18 = load ptr, ptr %17, align 8
  store ptr %18, ptr %8, align 8
  store ptr null, ptr %10, align 8
  store i32 0, ptr %13, align 4
  store i32 1, ptr %14, align 4
  call void (ptr, ...) @cli_dbgmsg(ptr noundef @.str.215)
  %19 = load ptr, ptr %8, align 8
  %20 = icmp eq ptr %19, null
  br i1 %20, label %21, label %22

21:                                               ; preds = %3
  store i32 1, ptr %4, align 4
  br label %133

22:                                               ; preds = %3
  %23 = load ptr, ptr %6, align 8
  %24 = icmp eq ptr %23, null
  br i1 %24, label %25, label %29

25:                                               ; preds = %22
  %26 = load ptr, ptr %7, align 8
  %27 = icmp eq ptr %26, null
  br i1 %27, label %28, label %29

28:                                               ; preds = %25
  store i32 1, ptr %4, align 4
  br label %133

29:                                               ; preds = %25, %22
  %30 = load ptr, ptr %6, align 8
  %31 = icmp ne ptr %30, null
  br i1 %31, label %32, label %35

32:                                               ; preds = %29
  %33 = load ptr, ptr %6, align 8
  %34 = call ptr @messageToBlob(ptr noundef %33, i32 noundef 0)
  store ptr %34, ptr %10, align 8
  br label %38

35:                                               ; preds = %29
  %36 = load ptr, ptr %7, align 8
  %37 = call ptr @textToBlob(ptr noundef %36, ptr noundef null, i32 noundef 0)
  store ptr %37, ptr %10, align 8
  br label %38

38:                                               ; preds = %35, %32
  %39 = load ptr, ptr %10, align 8
  %40 = icmp eq ptr %39, null
  br i1 %40, label %41, label %42

41:                                               ; preds = %38
  store i32 1, ptr %4, align 4
  br label %133

42:                                               ; preds = %38
  %43 = load ptr, ptr %10, align 8
  %44 = getelementptr inbounds %struct.blob, ptr %43, i32 0, i32 1
  %45 = load ptr, ptr %44, align 8
  %46 = load ptr, ptr %10, align 8
  %47 = getelementptr inbounds %struct.blob, ptr %46, i32 0, i32 2
  %48 = load i64, ptr %47, align 8
  %49 = trunc i64 %48 to i32
  %50 = call ptr @htmlReadMemory(ptr noundef %45, i32 noundef %49, ptr noundef @.str.216, ptr noundef null, i32 noundef 2144)
  store ptr %50, ptr %11, align 8
  %51 = load ptr, ptr %11, align 8
  %52 = icmp eq ptr %51, null
  br i1 %52, label %53, label %70

53:                                               ; preds = %42
  call void (ptr, ...) @cli_dbgmsg(ptr noundef @.str.217)
  %54 = load ptr, ptr %8, align 8
  %55 = getelementptr inbounds %struct.cli_ctx_tag, ptr %54, i32 0, i32 21
  %56 = load ptr, ptr %55, align 8
  %57 = icmp ne ptr %56, null
  br i1 %57, label %58, label %63

58:                                               ; preds = %53
  %59 = load ptr, ptr %8, align 8
  %60 = getelementptr inbounds %struct.cli_ctx_tag, ptr %59, i32 0, i32 21
  %61 = load ptr, ptr %60, align 8
  %62 = call i32 @cli_json_parse_error(ptr noundef %61, ptr noundef @.str.218)
  store i32 %62, ptr %13, align 4
  br label %63

63:                                               ; preds = %58, %53
  %64 = load i32, ptr %13, align 4
  %65 = icmp ne i32 %64, 0
  br i1 %65, label %66, label %67

66:                                               ; preds = %63
  store i32 0, ptr %14, align 4
  br label %67

67:                                               ; preds = %66, %63
  %68 = load ptr, ptr %10, align 8
  call void @blobDestroy(ptr noundef %68)
  %69 = load i32, ptr %14, align 4
  store i32 %69, ptr %4, align 4
  br label %133

70:                                               ; preds = %42
  %71 = load ptr, ptr %5, align 8
  %72 = getelementptr inbounds %struct.mbox_ctx, ptr %71, i32 0, i32 5
  %73 = load ptr, ptr %72, align 8
  %74 = icmp ne ptr %73, null
  br i1 %74, label %75, label %92

75:                                               ; preds = %70
  %76 = load ptr, ptr %5, align 8
  %77 = getelementptr inbounds %struct.mbox_ctx, ptr %76, i32 0, i32 5
  %78 = load ptr, ptr %77, align 8
  %79 = call ptr @cli_jsonobj(ptr noundef %78, ptr noundef @.str.219)
  store ptr %79, ptr %15, align 8
  %80 = load ptr, ptr %15, align 8
  %81 = icmp ne ptr %80, null
  br i1 %81, label %82, label %91

82:                                               ; preds = %75
  %83 = load ptr, ptr %15, align 8
  %84 = load ptr, ptr %11, align 8
  %85 = call ptr @htmlGetMetaEncoding(ptr noundef %84)
  %86 = call i32 @cli_jsonstr(ptr noundef %83, ptr noundef @.str.220, ptr noundef %85)
  %87 = load ptr, ptr %15, align 8
  %88 = load ptr, ptr %11, align 8
  %89 = call i32 @xmlGetDocCompressMode(ptr noundef %88)
  %90 = call i32 @cli_jsonint(ptr noundef %87, ptr noundef @.str.221, i32 noundef %89)
  br label %91

91:                                               ; preds = %82, %75
  br label %92

92:                                               ; preds = %91, %70
  %93 = load ptr, ptr %11, align 8
  %94 = call ptr @xmlReaderWalker(ptr noundef %93)
  store ptr %94, ptr %12, align 8
  %95 = load ptr, ptr %12, align 8
  %96 = icmp eq ptr %95, null
  br i1 %96, label %97, label %114

97:                                               ; preds = %92
  call void (ptr, ...) @cli_dbgmsg(ptr noundef @.str.222)
  %98 = load ptr, ptr %8, align 8
  %99 = getelementptr inbounds %struct.cli_ctx_tag, ptr %98, i32 0, i32 21
  %100 = load ptr, ptr %99, align 8
  %101 = icmp ne ptr %100, null
  br i1 %101, label %102, label %107

102:                                              ; preds = %97
  %103 = load ptr, ptr %8, align 8
  %104 = getelementptr inbounds %struct.cli_ctx_tag, ptr %103, i32 0, i32 21
  %105 = load ptr, ptr %104, align 8
  %106 = call i32 @cli_json_parse_error(ptr noundef %105, ptr noundef @.str.223)
  store i32 %106, ptr %13, align 4
  br label %107

107:                                              ; preds = %102, %97
  %108 = load i32, ptr %13, align 4
  %109 = icmp ne i32 %108, 0
  br i1 %109, label %110, label %111

110:                                              ; preds = %107
  store i32 0, ptr %14, align 4
  br label %111

111:                                              ; preds = %110, %107
  %112 = load ptr, ptr %10, align 8
  call void @blobDestroy(ptr noundef %112)
  %113 = load i32, ptr %14, align 4
  store i32 %113, ptr %4, align 4
  br label %133

114:                                              ; preds = %92
  call void @llvm.memset.p0.i64(ptr align 8 %9, i8 0, i64 40, i1 false)
  %115 = getelementptr inbounds %struct.msxml_ctx, ptr %9, i32 0, i32 2
  store ptr @parseMHTMLComment, ptr %115, align 8
  %116 = load ptr, ptr %8, align 8
  %117 = load ptr, ptr %12, align 8
  %118 = load i64, ptr @num_mhtml_keys, align 8
  %119 = call i32 @cli_msxml_parse_document(ptr noundef %116, ptr noundef %117, ptr noundef @mhtml_keys, i64 noundef %118, i32 noundef 3, ptr noundef %9)
  store i32 %119, ptr %13, align 4
  %120 = load i32, ptr %13, align 4
  switch i32 %120, label %125 [
    i32 0, label %121
    i32 21, label %121
    i32 22, label %121
    i32 23, label %122
    i32 25, label %123
    i32 1, label %124
  ]

121:                                              ; preds = %114, %114, %114
  store i32 1, ptr %14, align 4
  br label %126

122:                                              ; preds = %114
  store i32 4, ptr %14, align 4
  br label %126

123:                                              ; preds = %114
  store i32 5, ptr %14, align 4
  br label %126

124:                                              ; preds = %114
  store i32 3, ptr %14, align 4
  br label %126

125:                                              ; preds = %114
  store i32 0, ptr %14, align 4
  br label %126

126:                                              ; preds = %125, %124, %123, %122, %121
  %127 = load ptr, ptr %12, align 8
  %128 = call i32 @xmlTextReaderClose(ptr noundef %127)
  %129 = load ptr, ptr %12, align 8
  call void @xmlFreeTextReader(ptr noundef %129)
  %130 = load ptr, ptr %11, align 8
  call void @xmlFreeDoc(ptr noundef %130)
  %131 = load ptr, ptr %10, align 8
  call void @blobDestroy(ptr noundef %131)
  %132 = load i32, ptr %14, align 4
  store i32 %132, ptr %4, align 4
  br label %133

133:                                              ; preds = %126, %111, %67, %41, %28, %21
  %134 = load i32, ptr %4, align 4
  ret i32 %134
}