; Function Attrs: nounwind uwtable
define internal fastcc void @parseRootMHTML(ptr nocapture noundef readonly %0, ptr noundef %1, ptr noundef %2) unnamed_addr #0 {
  %4 = alloca %struct.msxml_ctx, align 8
  %5 = getelementptr inbounds i8, ptr %0, i64 24
  %6 = load ptr, ptr %5, align 8
  tail call void (ptr, ...) @cli_dbgmsg(ptr noundef nonnull @.str.215) #19
  %7 = icmp eq ptr %6, null
  br i1 %7, label %53, label %8

8:                                                ; preds = %3
  %9 = icmp eq ptr %1, null
  %10 = icmp eq ptr %2, null
  %or.cond = and i1 %9, %10
  br i1 %or.cond, label %53, label %11

11:                                               ; preds = %8
  br i1 %9, label %14, label %12

12:                                               ; preds = %11
  %13 = tail call ptr @messageToBlob(ptr noundef nonnull %1, i32 noundef 0) #19
  br label %16

14:                                               ; preds = %11
  %15 = tail call ptr @textToBlob(ptr noundef %2, ptr noundef null, i32 noundef 0) #19
  br label %16

16:                                               ; preds = %14, %12
  %.042 = phi ptr [ %13, %12 ], [ %15, %14 ]
  %17 = icmp eq ptr %.042, null
  br i1 %17, label %53, label %18

18:                                               ; preds = %16
  %19 = getelementptr inbounds i8, ptr %.042, i64 8
  %20 = load ptr, ptr %19, align 8
  %21 = getelementptr inbounds i8, ptr %.042, i64 16
  %22 = load i64, ptr %21, align 8
  %23 = trunc i64 %22 to i32
  %24 = tail call ptr @htmlReadMemory(ptr noundef %20, i32 noundef %23, ptr noundef nonnull @.str.216, ptr noundef null, i32 noundef 2144) #19
  %25 = icmp eq ptr %24, null
  br i1 %25, label %26, label %31

26:                                               ; preds = %18
  tail call void (ptr, ...) @cli_dbgmsg(ptr noundef nonnull @.str.217) #19
  %27 = getelementptr inbounds i8, ptr %6, i64 160
  %28 = load ptr, ptr %27, align 8
  %.not55 = icmp eq ptr %28, null
  br i1 %.not55, label %.thread, label %29

29:                                               ; preds = %26
  %30 = tail call i32 @cli_json_parse_error(ptr noundef nonnull %28, ptr noundef nonnull @.str.218) #19
  br label %.thread

.thread:                                          ; preds = %29, %26
  tail call void @blobDestroy(ptr noundef nonnull %.042) #19
  br label %53

31:                                               ; preds = %18
  %32 = getelementptr inbounds i8, ptr %0, i64 40
  %33 = load ptr, ptr %32, align 8
  %.not51 = icmp eq ptr %33, null
  br i1 %.not51, label %41, label %34

34:                                               ; preds = %31
  %35 = tail call ptr @cli_jsonobj(ptr noundef nonnull %33, ptr noundef nonnull @.str.219) #19
  %.not52 = icmp eq ptr %35, null
  br i1 %.not52, label %41, label %36

36:                                               ; preds = %34
  %37 = tail call ptr @htmlGetMetaEncoding(ptr noundef nonnull %24) #19
  %38 = tail call i32 @cli_jsonstr(ptr noundef nonnull %35, ptr noundef nonnull @.str.220, ptr noundef %37) #19
  %39 = tail call i32 @xmlGetDocCompressMode(ptr noundef nonnull %24) #19
  %40 = tail call i32 @cli_jsonint(ptr noundef nonnull %35, ptr noundef nonnull @.str.221, i32 noundef %39) #19
  br label %41

41:                                               ; preds = %34, %36, %31
  %42 = tail call ptr @xmlReaderWalker(ptr noundef nonnull %24) #19
  %43 = icmp eq ptr %42, null
  br i1 %43, label %44, label %49

44:                                               ; preds = %41
  tail call void (ptr, ...) @cli_dbgmsg(ptr noundef nonnull @.str.222) #19
  %45 = getelementptr inbounds i8, ptr %6, i64 160
  %46 = load ptr, ptr %45, align 8
  %.not53 = icmp eq ptr %46, null
  br i1 %.not53, label %.thread61, label %47

47:                                               ; preds = %44
  %48 = tail call i32 @cli_json_parse_error(ptr noundef nonnull %46, ptr noundef nonnull @.str.223) #19
  br label %.thread61

.thread61:                                        ; preds = %47, %44
  tail call void @blobDestroy(ptr noundef nonnull %.042) #19
  br label %53

49:                                               ; preds = %41
  call void @llvm.memset.p0.i64(ptr noundef nonnull align 8 dereferenceable(40) %4, i8 0, i64 40, i1 false)
  %50 = getelementptr inbounds i8, ptr %4, i64 16
  store ptr @parseMHTMLComment, ptr %50, align 8
  %51 = call i32 @cli_msxml_parse_document(ptr noundef nonnull %6, ptr noundef nonnull %42, ptr noundef nonnull @mhtml_keys, i64 noundef 5, i32 noundef 3, ptr noundef nonnull %4) #19
  %52 = call i32 @xmlTextReaderClose(ptr noundef nonnull %42) #19
  call void @xmlFreeTextReader(ptr noundef nonnull %42) #19
  call void @xmlFreeDoc(ptr noundef nonnull %24) #19
  call void @blobDestroy(ptr noundef nonnull %.042) #19
  br label %53

53:                                               ; preds = %16, %8, %3, %49, %.thread61, %.thread
  ret void
}